target datalayout = "e-m:e-p270:32:32-p271:32:32-p272:64:64-i64:64-i128:128-f80:128-n8:16:32:64-S128"
target triple = "x86_64-pc-linux-gnu"

%struct.rb_data_type_struct = type { ptr, %struct.anon, ptr, ptr, i64 }
%struct.anon = type { ptr, ptr, ptr, ptr, [1 x ptr] }
%struct.ComplexDateData = type { i32, i32, i64, float, i32, i32, i32, i32, i64 }

@d_lite_type = internal constant %struct.rb_data_type_struct { ptr @.str.14, %struct.anon { ptr @d_lite_gc_mark, ptr inttoptr (i64 -1 to ptr), ptr @d_lite_memsize, ptr null, [1 x ptr] zeroinitializer }, ptr null, ptr null, i64 289 }, align 8

; Function Attrs: inlinehint nounwind sspstrong uwtable
define internal void @df_to_time(i32 noundef %0, ptr noundef %1, ptr noundef %2, ptr noundef %3) #3 {
  %5 = alloca i32, align 4
  %6 = alloca ptr, align 8
  %7 = alloca ptr, align 8
  %8 = alloca ptr, align 8
  store i32 %0, ptr %5, align 4, !tbaa !19
  store ptr %1, ptr %6, align 8, !tbaa !71
  store ptr %2, ptr %7, align 8, !tbaa !71
  store ptr %3, ptr %8, align 8, !tbaa !71
  %9 = load i32, ptr %5, align 4, !tbaa !19
  %10 = sdiv i32 %9, 3600
  %11 = load ptr, ptr %6, align 8, !tbaa !71
  store i32 %10, ptr %11, align 4, !tbaa !19
  %12 = load i32, ptr %5, align 4, !tbaa !19
  %13 = srem i32 %12, 3600
  store i32 %13, ptr %5, align 4, !tbaa !19
  %14 = load i32, ptr %5, align 4, !tbaa !19
  %15 = sdiv i32 %14, 60
  %16 = load ptr, ptr %7, align 8, !tbaa !71
  store i32 %15, ptr %16, align 4, !tbaa !19
  %17 = load i32, ptr %5, align 4, !tbaa !19
  %18 = srem i32 %17, 60
  %19 = load ptr, ptr %8, align 8, !tbaa !71
  store i32 %18, ptr %19, align 4, !tbaa !19
  ret void
}

; Function Attrs: inlinehint nounwind sspstrong uwtable
define internal i32 @df_utc_to_local(i32 noundef %0, i32 noundef %1) #3 {
  %3 = alloca i32, align 4
  %4 = alloca i32, align 4
  store i32 %0, ptr %3, align 4, !tbaa !19
  store i32 %1, ptr %4, align 4, !tbaa !19
  %5 = load i32, ptr %4, align 4, !tbaa !19
  %6 = load i32, ptr %3, align 4, !tbaa !19
  %7 = add nsw i32 %6, %5
  store i32 %7, ptr %3, align 4, !tbaa !19
  %8 = load i32, ptr %3, align 4, !tbaa !19
  %9 = icmp slt i32 %8, 0
  br i1 %9, label %10, label %13

10:                                               ; preds = %2
  %11 = load i32, ptr %3, align 4, !tbaa !19
  %12 = add nsw i32 %11, 86400
  store i32 %12, ptr %3, align 4, !tbaa !19
  br label %20

13:                                               ; preds = %2
  %14 = load i32, ptr %3, align 4, !tbaa !19
  %15 = icmp sge i32 %14, 86400
  br i1 %15, label %16, label %19

16:                                               ; preds = %13
  %17 = load i32, ptr %3, align 4, !tbaa !19
  %18 = sub nsw i32 %17, 86400
  store i32 %18, ptr %3, align 4, !tbaa !19
  br label %19

19:                                               ; preds = %16, %13
  br label %20

20:                                               ; preds = %19, %10
  %21 = load i32, ptr %3, align 4, !tbaa !19
  ret i32 %21
}

; Function Attrs: inlinehint nounwind sspstrong uwtable
define internal void @get_c_time(ptr noundef %0) #3 {
  %2 = alloca ptr, align 8
  %3 = alloca i32, align 4
  %4 = alloca i32, align 4
  %5 = alloca i32, align 4
  %6 = alloca i32, align 4
  %7 = alloca i32, align 4
  %8 = alloca i32, align 4
  store ptr %0, ptr %2, align 8, !tbaa !27
  %9 = load ptr, ptr %2, align 8, !tbaa !27
  %10 = load i32, ptr %9, align 8, !tbaa !38
  %11 = and i32 %10, 8
  %12 = icmp ne i32 %11, 0
  br i1 %12, label %52, label %13

13:                                               ; preds = %1
  call void @llvm.lifetime.start.p0(i64 4, ptr %3) #23
  call void @llvm.lifetime.start.p0(i64 4, ptr %4) #23
  call void @llvm.lifetime.start.p0(i64 4, ptr %5) #23
  call void @llvm.lifetime.start.p0(i64 4, ptr %6) #23
  call void @llvm.lifetime.start.p0(i64 4, ptr %7) #23
  call void @llvm.lifetime.start.p0(i64 4, ptr %8) #23
  %14 = load ptr, ptr %2, align 8, !tbaa !27
  %15 = getelementptr inbounds nuw %struct.ComplexDateData, ptr %14, i32 0, i32 5
  %16 = load i32, ptr %15, align 8, !tbaa !38
  %17 = lshr i32 %16, 22
  %18 = and i32 %17, 15
  store i32 %18, ptr %4, align 4, !tbaa !19
  %19 = load ptr, ptr %2, align 8, !tbaa !27
  %20 = getelementptr inbounds nuw %struct.ComplexDateData, ptr %19, i32 0, i32 5
  %21 = load i32, ptr %20, align 8, !tbaa !38
  %22 = lshr i32 %21, 17
  %23 = and i32 %22, 31
  store i32 %23, ptr %5, align 4, !tbaa !19
  %24 = load ptr, ptr %2, align 8, !tbaa !27
  %25 = getelementptr inbounds nuw %struct.ComplexDateData, ptr %24, i32 0, i32 6
  %26 = load i32, ptr %25, align 4, !tbaa !38
  %27 = load ptr, ptr %2, align 8, !tbaa !27
  %28 = getelementptr inbounds nuw %struct.ComplexDateData, ptr %27, i32 0, i32 7
  %29 = load i32, ptr %28, align 8, !tbaa !38
  %30 = call i32 @df_utc_to_local(i32 noundef %26, i32 noundef %29)
  store i32 %30, ptr %3, align 4, !tbaa !19
  %31 = load i32, ptr %3, align 4, !tbaa !19
  call void @df_to_time(i32 noundef %31, ptr noundef %6, ptr noundef %7, ptr noundef %8)
  %32 = load i32, ptr %4, align 4, !tbaa !19
  %33 = shl i32 %32, 22
  %34 = load i32, ptr %5, align 4, !tbaa !19
  %35 = shl i32 %34, 17
  %36 = or i32 %33, %35
  %37 = load i32, ptr %6, align 4, !tbaa !19
  %38 = shl i32 %37, 12
  %39 = or i32 %36, %38
  %40 = load i32, ptr %7, align 4, !tbaa !19
  %41 = shl i32 %40, 6
  %42 = or i32 %39, %41
  %43 = load i32, ptr %8, align 4, !tbaa !19
  %44 = shl i32 %43, 0
  %45 = or i32 %42, %44
  %46 = load ptr, ptr %2, align 8, !tbaa !27
  %47 = getelementptr inbounds nuw %struct.ComplexDateData, ptr %46, i32 0, i32 5
  store i32 %45, ptr %47, align 8, !tbaa !38
  %48 = load ptr, ptr %2, align 8, !tbaa !27
  %49 = getelementptr inbounds nuw %struct.ComplexDateData, ptr %48, i32 0, i32 0
  %50 = load i32, ptr %49, align 8, !tbaa !38
  %51 = or i32 %50, 8
  store i32 %51, ptr %49, align 8, !tbaa !38
  call void @llvm.lifetime.end.p0(i64 4, ptr %8) #23
  call void @llvm.lifetime.end.p0(i64 4, ptr %7) #23
  call void @llvm.lifetime.end.p0(i64 4, ptr %6) #23
  call void @llvm.lifetime.end.p0(i64 4, ptr %5) #23
  call void @llvm.lifetime.end.p0(i64 4, ptr %4) #23
  call void @llvm.lifetime.end.p0(i64 4, ptr %3) #23
  br label %52

52:                                               ; preds = %13, %1
  ret void
}

; Function Attrs: inlinehint nounwind sspstrong willreturn memory(none) uwtable
define internal i64 @RB_INT2FIX(i64 noundef %0) #6 {
  %2 = alloca i64, align 8
  %3 = alloca i64, align 8
  %4 = alloca i64, align 8
  %5 = alloca i64, align 8
  %6 = alloca i64, align 8
  %7 = alloca i64, align 8
  store i64 %0, ptr %2, align 8, !tbaa !6
  call void @llvm.lifetime.start.p0(i64 8, ptr %3) #23
  %8 = load i64, ptr %2, align 8, !tbaa !6
  store i64 %8, ptr %3, align 8, !tbaa !6
  call void @llvm.lifetime.start.p0(i64 8, ptr %4) #23
  %9 = load i64, ptr %3, align 8, !tbaa !6
  %10 = shl i64 %9, 1
  %11 = add i64 %10, 1
  store i64 %11, ptr %4, align 8, !tbaa !6
  call void @llvm.lifetime.start.p0(i64 8, ptr %5) #23
  %12 = load i64, ptr %4, align 8, !tbaa !6
  store i64 %12, ptr %5, align 8, !tbaa !6
  call void @llvm.lifetime.start.p0(i64 8, ptr %6) #23
  %13 = load i64, ptr %5, align 8, !tbaa !6
  store i64 %13, ptr %6, align 8, !tbaa !6
  call void @llvm.lifetime.start.p0(i64 8, ptr %7) #23
  %14 = load i64, ptr %6, align 8, !tbaa !6
  store i64 %14, ptr %7, align 8, !tbaa !6
  %15 = load i64, ptr %7, align 8, !tbaa !6
  call void @llvm.lifetime.end.p0(i64 8, ptr %7) #23
  call void @llvm.lifetime.end.p0(i64 8, ptr %6) #23
  call void @llvm.lifetime.end.p0(i64 8, ptr %5) #23
  call void @llvm.lifetime.end.p0(i64 8, ptr %4) #23
  call void @llvm.lifetime.end.p0(i64 8, ptr %3) #23
  ret i64 %15
}

; Function Attrs: inlinehint nounwind sspstrong uwtable
define internal i32 @m_sec(ptr noundef %0) #3 {
  %2 = alloca i32, align 4
  %3 = alloca ptr, align 8
  store ptr %0, ptr %3, align 8, !tbaa !27
  %4 = load ptr, ptr %3, align 8, !tbaa !27
  %5 = load i32, ptr %4, align 8, !tbaa !38
  %6 = and i32 %5, 128
  %7 = icmp ne i32 %6, 0
  br i1 %7, label %9, label %8

8:                                                ; preds = %1
  store i32 0, ptr %2, align 4
  br label %16

9:                                                ; preds = %1
  %10 = load ptr, ptr %3, align 8, !tbaa !27
  call void @get_c_time(ptr noundef %10)
  %11 = load ptr, ptr %3, align 8, !tbaa !27
  %12 = getelementptr inbounds nuw %struct.ComplexDateData, ptr %11, i32 0, i32 5
  %13 = load i32, ptr %12, align 8, !tbaa !38
  %14 = lshr i32 %13, 0
  %15 = and i32 %14, 63
  store i32 %15, ptr %2, align 4
  br label %16

16:                                               ; preds = %9, %8
  %17 = load i32, ptr %2, align 4
  ret i32 %17
}

; Function Attrs: nounwind sspstrong uwtable
define internal i64 @d_lite_sec(i64 noundef %0) #0 {
  %2 = alloca i64, align 8
  %3 = alloca ptr, align 8
  store i64 %0, ptr %2, align 8, !tbaa !6
  call void @llvm.lifetime.start.p0(i64 8, ptr %3) #23
  %4 = load i64, ptr %2, align 8, !tbaa !6
  %5 = call ptr @rb_check_typeddata(i64 noundef %4, ptr noundef @d_lite_type)
  store ptr %5, ptr %3, align 8, !tbaa !27
  %6 = load ptr, ptr %3, align 8, !tbaa !27
  %7 = call i32 @m_sec(ptr noundef %6)
  %8 = sext i32 %7 to i64
  %9 = call i64 @RB_INT2FIX(i64 noundef %8) #24
  call void @llvm.lifetime.end.p0(i64 8, ptr %3) #23
  ret i64 %9
}