; Function Attrs: nounwind sspstrong uwtable
define internal range(i64 1, 128) i64 @d_lite_sec(i64 noundef %0) #0 {
  %2 = tail call ptr @rb_check_typeddata(i64 noundef %0, ptr noundef nonnull @d_lite_type) #21
  %3 = load i32, ptr %2, align 8, !tbaa !47
  %4 = and i32 %3, 128
  %.not.i = icmp eq i32 %4, 0
  br i1 %.not.i, label %m_sec.exit, label %5

5:                                                ; preds = %1
  %6 = and i32 %3, 8
  %.not.i.i = icmp eq i32 %6, 0
  %7 = getelementptr inbounds nuw i8, ptr %2, i64 24
  %8 = load i32, ptr %7, align 8, !tbaa !47
  br i1 %.not.i.i, label %9, label %get_c_time.exit.i

9:                                                ; preds = %5
  %10 = getelementptr inbounds nuw i8, ptr %2, i64 28
  %11 = load i32, ptr %10, align 4, !tbaa !47
  %12 = getelementptr inbounds nuw i8, ptr %2, i64 32
  %13 = load i32, ptr %12, align 8, !tbaa !47
  %14 = add nsw i32 %13, %11
  %15 = icmp slt i32 %14, 0
  %16 = add nsw i32 %14, 86400
  %17 = icmp samesign ugt i32 %14, 86399
  %18 = add nsw i32 %14, -86400
  %spec.select.i.i.i = select i1 %17, i32 %18, i32 %14
  %.0.i.i.i = select i1 %15, i32 %16, i32 %spec.select.i.i.i
  %19 = sdiv i32 %.0.i.i.i, 3600
  %20 = srem i32 %.0.i.i.i, 3600
  %.lhs.trunc.i.i.i = trunc nsw i32 %20 to i16
  %21 = sdiv i16 %.lhs.trunc.i.i.i, 60
  %.sext.i.i.i = sext i16 %21 to i32
  %22 = srem i16 %.lhs.trunc.i.i.i, 60
  %.sext7.i.i.i = sext i16 %22 to i32
  %23 = and i32 %8, 66977792
  %24 = shl i32 %19, 12
  %25 = or i32 %24, %23
  %26 = shl nsw i32 %.sext.i.i.i, 6
  %27 = or i32 %25, %.sext7.i.i.i
  %28 = or i32 %27, %26
  store i32 %28, ptr %7, align 8, !tbaa !47
  %29 = or disjoint i32 %3, 8
  store i32 %29, ptr %2, align 8, !tbaa !47
  br label %get_c_time.exit.i

get_c_time.exit.i:                                ; preds = %9, %5
  %30 = phi i32 [ %28, %9 ], [ %8, %5 ]
  %31 = shl i32 %30, 1
  %32 = and i32 %31, 126
  %33 = or disjoint i32 %32, 1
  %34 = zext nneg i32 %33 to i64
  br label %m_sec.exit

m_sec.exit:                                       ; preds = %1, %get_c_time.exit.i
  %.0.i = phi i64 [ %34, %get_c_time.exit.i ], [ 1, %1 ]
  ret i64 %.0.i
}